(dp1
S'rightFootOptions_numMiddleBones'
p2
(lp3
I0
a(lp4
F0.16862745098039217
aF0.16862745098039217
aF0.16862745098039217
aasS'rightLegOptions_numHeelTwistBones'
p5
(lp6
I0
a(lp7
F0.25098039215686274
aF0.25098039215686274
aF0.25098039215686274
aasS'leftArmOptions_numLowArmTwistBones'
p8
(lp9
I1
a(lp10
F0.16862745098039217
aF0.16862745098039217
aF0.16862745098039217
aasS'leftLegOptions_numHeelTwistBones'
p11
(lp12
I0
a(lp13
F0.25098039215686274
aF0.25098039215686274
aF0.25098039215686274
aasS'leftArmOptions_numUpArmTwistBones'
p14
(lp15
I1
a(lp16
F0.16862745098039217
aF0.16862745098039217
aF0.16862745098039217
aasS'leftFootOptions_numMiddleBones'
p17
(lp18
I0
a(lp19
F0.16862745098039217
aF0.16862745098039217
aF0.16862745098039217
aasS'leftLegOptions_numCalfTwistBones'
p20
(lp21
I1
a(lp22
F0.16862745098039217
aF0.16862745098039217
aF0.16862745098039217
aasS'leftHandOptions_numPinkyBones'
p23
(lp24
I3
a(lp25
F0.16862745098039217
aF0.16862745098039217
aF0.16862745098039217
aasS'rightHandOptions_numMiddleBones'
p26
(lp27
I3
a(lp28
F0.16862745098039217
aF0.16862745098039217
aF0.16862745098039217
aasS'torsoOptions_numSpineBones'
p29
(lp30
I3
a(lp31
F0.16862745098039217
aF0.16862745098039217
aF0.16862745098039217
aasS'leftHandOptions_numIndexBones'
p32
(lp33
I3
a(lp34
F0.16862745098039217
aF0.16862745098039217
aF0.16862745098039217
aasS'rightArmOptions_numLowArmTwistBones'
p35
(lp36
I1
a(lp37
F0.16862745098039217
aF0.16862745098039217
aF0.16862745098039217
aasS'rightLegOptions_numThighTwistBones'
p38
(lp39
I1
a(lp40
F0.16862745098039217
aF0.16862745098039217
aF0.16862745098039217
aasS'rightHandOptions_numIndexBones'
p41
(lp42
I3
a(lp43
F0.16862745098039217
aF0.16862745098039217
aF0.16862745098039217
aasS'leftHandOptions_numMiddleBones'
p44
(lp45
I3
a(lp46
F0.16862745098039217
aF0.16862745098039217
aF0.16862745098039217
aasS'leftHandOptions_numRingBones'
p47
(lp48
I3
a(lp49
F0.16862745098039217
aF0.16862745098039217
aF0.16862745098039217
aasS'rightLegOptions_numCalfTwistBones'
p50
(lp51
I1
a(lp52
F0.16862745098039217
aF0.16862745098039217
aF0.16862745098039217
aasS'rightHandOptions_numPinkyBones'
p53
(lp54
I3
a(lp55
F0.16862745098039217
aF0.16862745098039217
aF0.16862745098039217
aasS'rightLegIncludeBallJoint_CB'
p56
I00
sS'rightFootOptions_numRingBones'
p57
(lp58
I0
a(lp59
F0.16862745098039217
aF0.16862745098039217
aF0.16862745098039217
aasS'rightFootOptions_numIndexBones'
p60
(lp61
I0
a(lp62
F0.16862745098039217
aF0.16862745098039217
aF0.16862745098039217
aasS'leftFootOptions_numPinkyBones'
p63
(lp64
I0
a(lp65
F0.16862745098039217
aF0.16862745098039217
aF0.16862745098039217
aasS'leftLegOptions_numThighTwistBones'
p66
(lp67
I1
a(lp68
F0.16862745098039217
aF0.16862745098039217
aF0.16862745098039217
aasS'leftLegIncludeBallJoint_CB'
p69
I00
sS'rightHandOptions_numRingBones'
p70
(lp71
I3
a(lp72
F0.16862745098039217
aF0.16862745098039217
aF0.16862745098039217
aasS'rightHandOptions_numThumbBones'
p73
(lp74
I3
a(lp75
F0.16862745098039217
aF0.16862745098039217
aF0.16862745098039217
aasS'leftFootOptions_numRingBones'
p76
(lp77
I0
a(lp78
F0.16862745098039217
aF0.16862745098039217
aF0.16862745098039217
aasS'leftHandOptions_numThumbBones'
p79
(lp80
I3
a(lp81
F0.16862745098039217
aF0.16862745098039217
aF0.16862745098039217
aasS'leftFootOptions_numIndexBones'
p82
(lp83
I0
a(lp84
F0.16862745098039217
aF0.16862745098039217
aF0.16862745098039217
aasS'rightArmOptions_numUpArmTwistBones'
p85
(lp86
I1
a(lp87
F0.16862745098039217
aF0.16862745098039217
aF0.16862745098039217
aasS'rightFootOptions_numPinkyBones'
p88
(lp89
I0
a(lp90
F0.16862745098039217
aF0.16862745098039217
aF0.16862745098039217
aasS'torsoOptions_numNeckBones'
p91
(lp92
I2
a(lp93
F0.16862745098039217
aF0.16862745098039217
aF0.16862745098039217
aasS'rightFootOptions_numThumbBones'
p94
(lp95
I0
a(lp96
F0.16862745098039217
aF0.16862745098039217
aF0.16862745098039217
aasS'leftFootOptions_numThumbBones'
p97
(lp98
I0
a(lp99
F0.16862745098039217
aF0.16862745098039217
aF0.16862745098039217
aas.